target datalayout = "e-m:e-p270:32:32-p271:32:32-p272:64:64-i64:64-i128:128-f80:128-n8:16:32:64-S128"
target triple = "x86_64-pc-linux-gnu"

%"class.std::_Function_base" = type { %"union.std::_Any_data", ptr }
%"union.std::_Any_data" = type { %"union.std::_Nocopy_types" }
%"union.std::_Nocopy_types" = type { { i64, i64 } }
%"class.std::unique_ptr.50" = type { %"struct.std::__uniq_ptr_data.51" }
%"struct.std::__uniq_ptr_data.51" = type { %"class.std::__uniq_ptr_impl.52" }
%"class.std::__uniq_ptr_impl.52" = type { %"class.std::tuple.53" }
%"class.std::tuple.53" = type { %"struct.std::_Tuple_impl.54" }
%"struct.std::_Tuple_impl.54" = type { %"struct.std::_Head_base.57" }
%"struct.std::_Head_base.57" = type { ptr }
%"class.llvm::DWARFContext::DWARFContextState" = type { ptr, ptr }
%"class.std::__cxx11::basic_string" = type { %"struct.std::__cxx11::basic_string<char>::_Alloc_hider", i64, %union.anon }
%"struct.std::__cxx11::basic_string<char>::_Alloc_hider" = type { ptr }
%union.anon = type { i64, [8 x i8] }
%"class.llvm::SmallVectorBase" = type { ptr, i32, i32 }
%"class.llvm::DWARFUnitVector" = type <{ %"class.llvm::SmallVector.178", %"class.std::function.183", i32, [4 x i8] }>
%"class.llvm::SmallVector.178" = type { %"class.llvm::SmallVectorImpl.179", %"struct.llvm::SmallVectorStorage.182" }
%"class.llvm::SmallVectorImpl.179" = type { %"class.llvm::SmallVectorTemplateBase.180" }
%"class.llvm::SmallVectorTemplateBase.180" = type { %"class.llvm::SmallVectorTemplateCommon.181" }
%"class.llvm::SmallVectorTemplateCommon.181" = type { %"class.llvm::SmallVectorBase" }
%"struct.llvm::SmallVectorStorage.182" = type { [8 x i8] }
%"class.std::function.183" = type { %"class.std::_Function_base", ptr }
%"class.(anonymous namespace)::ThreadSafeState" = type { %"class.(anonymous namespace)::ThreadUnsafeDWARFContextState", %"class.std::recursive_mutex" }
%"class.(anonymous namespace)::ThreadUnsafeDWARFContextState" = type { %"class.llvm::DWARFContext::DWARFContextState", %"class.llvm::DWARFUnitVector", %"class.std::optional.591", %"class.std::unique_ptr.601", %"class.std::unique_ptr.609", %"class.std::unique_ptr.601", %"class.std::unique_ptr.617", %"class.std::unique_ptr.625", %"class.std::unique_ptr.633", %"class.std::unique_ptr.641", %"class.std::unique_ptr.649", %"class.std::unique_ptr.649", %"class.std::unique_ptr.50", %"class.std::unique_ptr.50", %"class.std::unique_ptr.657", %"class.std::unique_ptr.665", %"class.std::unique_ptr.665", %"class.std::unique_ptr.665", %"class.std::unique_ptr.665", %"class.llvm::DWARFUnitVector", %"class.std::optional.591", %"class.std::unique_ptr.617", %"class.std::unique_ptr.50", %"class.std::unique_ptr.50", %"class.llvm::StringMap.673", %"class.std::weak_ptr", i8, %"class.std::__cxx11::basic_string" }
%"class.std::unique_ptr.609" = type { %"struct.std::__uniq_ptr_data.610" }
%"struct.std::__uniq_ptr_data.610" = type { %"class.std::__uniq_ptr_impl.611" }
%"class.std::__uniq_ptr_impl.611" = type { %"class.std::tuple.612" }
%"class.std::tuple.612" = type { %"struct.std::_Tuple_impl.613" }
%"struct.std::_Tuple_impl.613" = type { %"struct.std::_Head_base.616" }
%"struct.std::_Head_base.616" = type { ptr }
%"class.std::unique_ptr.601" = type { %"struct.std::__uniq_ptr_data.602" }
%"struct.std::__uniq_ptr_data.602" = type { %"class.std::__uniq_ptr_impl.603" }
%"class.std::__uniq_ptr_impl.603" = type { %"class.std::tuple.604" }
%"class.std::tuple.604" = type { %"struct.std::_Tuple_impl.605" }
%"struct.std::_Tuple_impl.605" = type { %"struct.std::_Head_base.608" }
%"struct.std::_Head_base.608" = type { ptr }
%"class.std::unique_ptr.625" = type { %"struct.std::__uniq_ptr_data.626" }
%"struct.std::__uniq_ptr_data.626" = type { %"class.std::__uniq_ptr_impl.627" }
%"class.std::__uniq_ptr_impl.627" = type { %"class.std::tuple.628" }
%"class.std::tuple.628" = type { %"struct.std::_Tuple_impl.629" }
%"struct.std::_Tuple_impl.629" = type { %"struct.std::_Head_base.632" }
%"struct.std::_Head_base.632" = type { ptr }
%"class.std::unique_ptr.633" = type { %"struct.std::__uniq_ptr_data.634" }
%"struct.std::__uniq_ptr_data.634" = type { %"class.std::__uniq_ptr_impl.635" }
%"class.std::__uniq_ptr_impl.635" = type { %"class.std::tuple.636" }
%"class.std::tuple.636" = type { %"struct.std::_Tuple_impl.637" }
%"struct.std::_Tuple_impl.637" = type { %"struct.std::_Head_base.640" }
%"struct.std::_Head_base.640" = type { ptr }
%"class.std::unique_ptr.641" = type { %"struct.std::__uniq_ptr_data.642" }
%"struct.std::__uniq_ptr_data.642" = type { %"class.std::__uniq_ptr_impl.643" }
%"class.std::__uniq_ptr_impl.643" = type { %"class.std::tuple.644" }
%"class.std::tuple.644" = type { %"struct.std::_Tuple_impl.645" }
%"struct.std::_Tuple_impl.645" = type { %"struct.std::_Head_base.648" }
%"struct.std::_Head_base.648" = type { ptr }
%"class.std::unique_ptr.649" = type { %"struct.std::__uniq_ptr_data.650" }
%"struct.std::__uniq_ptr_data.650" = type { %"class.std::__uniq_ptr_impl.651" }
%"class.std::__uniq_ptr_impl.651" = type { %"class.std::tuple.652" }
%"class.std::tuple.652" = type { %"struct.std::_Tuple_impl.653" }
%"struct.std::_Tuple_impl.653" = type { %"struct.std::_Head_base.656" }
%"struct.std::_Head_base.656" = type { ptr }
%"class.std::unique_ptr.657" = type { %"struct.std::__uniq_ptr_data.658" }
%"struct.std::__uniq_ptr_data.658" = type { %"class.std::__uniq_ptr_impl.659" }
%"class.std::__uniq_ptr_impl.659" = type { %"class.std::tuple.660" }
%"class.std::tuple.660" = type { %"struct.std::_Tuple_impl.661" }
%"struct.std::_Tuple_impl.661" = type { %"struct.std::_Head_base.664" }
%"struct.std::_Head_base.664" = type { ptr }
%"class.std::unique_ptr.665" = type { %"struct.std::__uniq_ptr_data.666" }
%"struct.std::__uniq_ptr_data.666" = type { %"class.std::__uniq_ptr_impl.667" }
%"class.std::__uniq_ptr_impl.667" = type { %"class.std::tuple.668" }
%"class.std::tuple.668" = type { %"struct.std::_Tuple_impl.669" }
%"struct.std::_Tuple_impl.669" = type { %"struct.std::_Head_base.672" }
%"struct.std::_Head_base.672" = type { ptr }
%"class.std::optional.591" = type { %"struct.std::_Optional_base.592" }
%"struct.std::_Optional_base.592" = type { %"struct.std::_Optional_payload.594" }
%"struct.std::_Optional_payload.594" = type { %"struct.std::_Optional_payload.base.598", [7 x i8] }
%"struct.std::_Optional_payload.base.598" = type { %"struct.std::_Optional_payload_base.base.597" }
%"struct.std::_Optional_payload_base.base.597" = type { %"union.std::_Optional_payload_base<llvm::DenseMap<unsigned long, llvm::DWARFTypeUnit *>>::_Storage", i8 }
%"union.std::_Optional_payload_base<llvm::DenseMap<unsigned long, llvm::DWARFTypeUnit *>>::_Storage" = type { %"class.llvm::DenseMap.185" }
%"class.llvm::DenseMap.185" = type <{ ptr, i32, i32, i32, [4 x i8] }>
%"class.std::unique_ptr.617" = type { %"struct.std::__uniq_ptr_data.618" }
%"struct.std::__uniq_ptr_data.618" = type { %"class.std::__uniq_ptr_impl.619" }
%"class.std::__uniq_ptr_impl.619" = type { %"class.std::tuple.620" }
%"class.std::tuple.620" = type { %"struct.std::_Tuple_impl.621" }
%"struct.std::_Tuple_impl.621" = type { %"struct.std::_Head_base.624" }
%"struct.std::_Head_base.624" = type { ptr }
%"class.llvm::StringMap.673" = type { %"class.llvm::StringMapImpl" }
%"class.llvm::StringMapImpl" = type { ptr, i32, i32, i32, i32 }
%"class.std::weak_ptr" = type { %"class.std::__weak_ptr" }
%"class.std::__weak_ptr" = type { ptr, %"class.std::__weak_count" }
%"class.std::__weak_count" = type { ptr }
%"class.std::recursive_mutex" = type { %"class.std::__recursive_mutex_base" }
%"class.std::__recursive_mutex_base" = type { %union.pthread_mutex_t }
%union.pthread_mutex_t = type { %struct.__pthread_mutex_s }
%struct.__pthread_mutex_s = type { i32, i32, i32, i32, i32, i16, i16, %struct.__pthread_internal_list }
%struct.__pthread_internal_list = type { ptr, ptr }
%"class.std::unique_lock" = type <{ ptr, i8, [7 x i8] }>

; Function Attrs: mustprogress nounwind uwtable
define internal noundef i32 @_ZL18__gthread_active_pv() #0 {
  ret i32 1
}

; Function Attrs: mustprogress nounwind uwtable
define internal noundef i32 @_ZL22__gthread_mutex_unlockP15pthread_mutex_t(ptr noundef %0) #0 {
  %2 = alloca i32, align 4
  %3 = alloca ptr, align 8
  store ptr %0, ptr %3, align 8
  %4 = call noundef i32 @_ZL18__gthread_active_pv()
  %5 = icmp ne i32 %4, 0
  br i1 %5, label %6, label %9

6:                                                ; preds = %1
  %7 = load ptr, ptr %3, align 8
  %8 = call i32 @pthread_mutex_unlock(ptr noundef %7) #13
  store i32 %8, ptr %2, align 4
  br label %10

9:                                                ; preds = %1
  store i32 0, ptr %2, align 4
  br label %10

10:                                               ; preds = %9, %6
  %11 = load i32, ptr %2, align 4
  ret i32 %11
}

; Function Attrs: mustprogress nounwind uwtable
define internal noundef i32 @_ZL20__gthread_mutex_lockP15pthread_mutex_t(ptr noundef %0) #0 {
  %2 = alloca i32, align 4
  %3 = alloca ptr, align 8
  store ptr %0, ptr %3, align 8
  %4 = call noundef i32 @_ZL18__gthread_active_pv()
  %5 = icmp ne i32 %4, 0
  br i1 %5, label %6, label %9

6:                                                ; preds = %1
  %7 = load ptr, ptr %3, align 8
  %8 = call i32 @pthread_mutex_lock(ptr noundef %7) #13
  store i32 %8, ptr %2, align 4
  br label %10

9:                                                ; preds = %1
  store i32 0, ptr %2, align 4
  br label %10

10:                                               ; preds = %9, %6
  %11 = load i32, ptr %2, align 4
  ret i32 %11
}

; Function Attrs: mustprogress nounwind uwtable
define internal noundef i32 @_ZL32__gthread_recursive_mutex_unlockP15pthread_mutex_t(ptr noundef %0) #0 {
  %2 = alloca ptr, align 8
  store ptr %0, ptr %2, align 8
  %3 = load ptr, ptr %2, align 8
  %4 = call noundef i32 @_ZL22__gthread_mutex_unlockP15pthread_mutex_t(ptr noundef %3)
  ret i32 %4
}

; Function Attrs: mustprogress nounwind uwtable
define internal noundef i32 @_ZL30__gthread_recursive_mutex_lockP15pthread_mutex_t(ptr noundef %0) #0 {
  %2 = alloca ptr, align 8
  store ptr %0, ptr %2, align 8
  %3 = load ptr, ptr %2, align 8
  %4 = call noundef i32 @_ZL20__gthread_mutex_lockP15pthread_mutex_t(ptr noundef %3)
  ret i32 %4
}

; Function Attrs: mustprogress nounwind uwtable
define linkonce_odr hidden void @_ZNSt15recursive_mutex6unlockEv(ptr noundef nonnull align 8 dereferenceable(40) %0) #0 comdat align 2 {
  %2 = alloca ptr, align 8
  store ptr %0, ptr %2, align 8
  %3 = load ptr, ptr %2, align 8
  %4 = getelementptr inbounds nuw %"class.std::__recursive_mutex_base", ptr %3, i32 0, i32 0
  %5 = call noundef i32 @_ZL32__gthread_recursive_mutex_unlockP15pthread_mutex_t(ptr noundef %4)
  ret void
}

; Function Attrs: mustprogress nounwind uwtable
define linkonce_odr hidden void @_ZNSt15recursive_mutex4lockEv(ptr noundef nonnull align 8 dereferenceable(40) %0) #0 comdat align 2 {
  %2 = alloca ptr, align 8
  %3 = alloca i32, align 4
  store ptr %0, ptr %2, align 8
  %4 = load ptr, ptr %2, align 8
  %5 = getelementptr inbounds nuw %"class.std::__recursive_mutex_base", ptr %4, i32 0, i32 0
  %6 = call noundef i32 @_ZL30__gthread_recursive_mutex_lockP15pthread_mutex_t(ptr noundef %5)
  store i32 %6, ptr %3, align 4
  %7 = load i32, ptr %3, align 4
  %8 = icmp ne i32 %7, 0
  br i1 %8, label %9, label %11

9:                                                ; preds = %1
  %10 = load i32, ptr %3, align 4
  call void @_ZSt20__throw_system_errori(i32 noundef %10) #17
  unreachable

11:                                               ; preds = %1
  ret void
}

; Function Attrs: mustprogress nounwind uwtable
define linkonce_odr hidden void @_ZNSt11unique_lockISt15recursive_mutexE6unlockEv(ptr noundef nonnull align 8 dereferenceable(9) %0) #0 comdat align 2 {
  %2 = alloca ptr, align 8
  store ptr %0, ptr %2, align 8
  %3 = load ptr, ptr %2, align 8
  %4 = getelementptr inbounds nuw %"class.std::unique_lock", ptr %3, i32 0, i32 1
  %5 = load i8, ptr %4, align 8
  %6 = trunc i8 %5 to i1
  br i1 %6, label %8, label %7

7:                                                ; preds = %1
  call void @_ZSt20__throw_system_errori(i32 noundef 1) #17
  unreachable

8:                                                ; preds = %1
  %9 = getelementptr inbounds nuw %"class.std::unique_lock", ptr %3, i32 0, i32 0
  %10 = load ptr, ptr %9, align 8
  %11 = icmp ne ptr %10, null
  br i1 %11, label %12, label %16

12:                                               ; preds = %8
  %13 = getelementptr inbounds nuw %"class.std::unique_lock", ptr %3, i32 0, i32 0
  %14 = load ptr, ptr %13, align 8
  call void @_ZNSt15recursive_mutex6unlockEv(ptr noundef nonnull align 8 dereferenceable(40) %14)
  %15 = getelementptr inbounds nuw %"class.std::unique_lock", ptr %3, i32 0, i32 1
  store i8 0, ptr %15, align 8
  br label %16

16:                                               ; preds = %12, %8
  br label %17

17:                                               ; preds = %16
  ret void
}

; Function Attrs: mustprogress nounwind uwtable
define linkonce_odr hidden void @_ZNSt11unique_lockISt15recursive_mutexE4lockEv(ptr noundef nonnull align 8 dereferenceable(9) %0) #0 comdat align 2 {
  %2 = alloca ptr, align 8
  store ptr %0, ptr %2, align 8
  %3 = load ptr, ptr %2, align 8
  %4 = getelementptr inbounds nuw %"class.std::unique_lock", ptr %3, i32 0, i32 0
  %5 = load ptr, ptr %4, align 8
  %6 = icmp ne ptr %5, null
  br i1 %6, label %8, label %7

7:                                                ; preds = %1
  call void @_ZSt20__throw_system_errori(i32 noundef 1) #17
  unreachable

8:                                                ; preds = %1
  %9 = getelementptr inbounds nuw %"class.std::unique_lock", ptr %3, i32 0, i32 1
  %10 = load i8, ptr %9, align 8
  %11 = trunc i8 %10 to i1
  br i1 %11, label %12, label %13

12:                                               ; preds = %8
  call void @_ZSt20__throw_system_errori(i32 noundef 35) #17
  unreachable

13:                                               ; preds = %8
  %14 = getelementptr inbounds nuw %"class.std::unique_lock", ptr %3, i32 0, i32 0
  %15 = load ptr, ptr %14, align 8
  call void @_ZNSt15recursive_mutex4lockEv(ptr noundef nonnull align 8 dereferenceable(40) %15)
  %16 = getelementptr inbounds nuw %"class.std::unique_lock", ptr %3, i32 0, i32 1
  store i8 1, ptr %16, align 8
  br label %17

17:                                               ; preds = %13
  br label %18

18:                                               ; preds = %17
  ret void
}

; Function Attrs: mustprogress nounwind uwtable
define linkonce_odr hidden void @_ZNSt11unique_lockISt15recursive_mutexED2Ev(ptr noundef nonnull align 8 dereferenceable(9) %0) unnamed_addr #0 comdat align 2 {
  %2 = alloca ptr, align 8
  store ptr %0, ptr %2, align 8
  %3 = load ptr, ptr %2, align 8
  %4 = getelementptr inbounds nuw %"class.std::unique_lock", ptr %3, i32 0, i32 1
  %5 = load i8, ptr %4, align 8
  %6 = trunc i8 %5 to i1
  br i1 %6, label %7, label %8

7:                                                ; preds = %1
  call void @_ZNSt11unique_lockISt15recursive_mutexE6unlockEv(ptr noundef nonnull align 8 dereferenceable(9) %3)
  br label %8

8:                                                ; preds = %7, %1
  ret void
}

; Function Attrs: mustprogress nounwind uwtable
define linkonce_odr hidden void @_ZNSt11unique_lockISt15recursive_mutexEC2ERS0_(ptr noundef nonnull align 8 dereferenceable(9) %0, ptr noundef nonnull align 8 dereferenceable(40) %1) unnamed_addr #0 comdat align 2 {
  %3 = alloca ptr, align 8
  %4 = alloca ptr, align 8
  store ptr %0, ptr %3, align 8
  store ptr %1, ptr %4, align 8
  %5 = load ptr, ptr %3, align 8
  %6 = getelementptr inbounds nuw %"class.std::unique_lock", ptr %5, i32 0, i32 0
  %7 = load ptr, ptr %4, align 8
  store ptr %7, ptr %6, align 8
  %8 = getelementptr inbounds nuw %"class.std::unique_lock", ptr %5, i32 0, i32 1
  store i8 0, ptr %8, align 8
  call void @_ZNSt11unique_lockISt15recursive_mutexE4lockEv(ptr noundef nonnull align 8 dereferenceable(9) %5)
  %9 = getelementptr inbounds nuw %"class.std::unique_lock", ptr %5, i32 0, i32 1
  store i8 1, ptr %9, align 8
  ret void
}

; Function Attrs: mustprogress nounwind uwtable
define internal noundef nonnull align 8 dereferenceable(72) ptr @_ZN12_GLOBAL__N_115ThreadSafeState10getCUIndexEv(ptr noundef nonnull align 8 dereferenceable(480) %0) unnamed_addr #0 align 2 {
  %2 = alloca ptr, align 8
  %3 = alloca %"class.std::unique_lock", align 8
  store ptr %0, ptr %2, align 8
  %4 = load ptr, ptr %2, align 8
  %5 = getelementptr inbounds nuw %"class.(anonymous namespace)::ThreadSafeState", ptr %4, i32 0, i32 1
  call void @_ZNSt11unique_lockISt15recursive_mutexEC2ERS0_(ptr noundef nonnull align 8 dereferenceable(9) %3, ptr noundef nonnull align 8 dereferenceable(40) %5)
  %6 = call noundef nonnull align 8 dereferenceable(72) ptr @_ZN12_GLOBAL__N_129ThreadUnsafeDWARFContextState10getCUIndexEv(ptr noundef nonnull align 8 dereferenceable(440) %4)
  call void @_ZNSt11unique_lockISt15recursive_mutexED2Ev(ptr noundef nonnull align 8 dereferenceable(9) %3) #13
  ret ptr %6
}